; ModuleID = 'bench/php/original/pcre2_chkdint.ll'
source_filename = "bench/php/original/pcre2_chkdint.ll"
target datalayout = "e-m:e-p270:32:32-p271:32:32-p272:64:64-i64:64-i128:128-f80:128-n8:16:32:64-S128"
target triple = "x86_64-pc-linux-gnu"

; Function Attrs: mustprogress nofree norecurse nosync nounwind willreturn memory(argmem: write) uwtable
define hidden noundef i32 @_pcre2_ckd_smul(ptr nocapture noundef writeonly %0, i32 noundef %1, i32 noundef %2) local_unnamed_addr #0 {
  %4 = sext i32 %1 to i64
  %5 = sext i32 %2 to i64
  %6 = mul nsw i64 %5, %4
  store i64 %6, ptr %0, align 8
  ret i32 0
}


!llvm.module.flags = !{!0, !1, !2, !3}

!0 = !{i32 1, !"wchar_size", i32 4}
!1 = !{i32 8, !"PIC Level", i32 2}
!2 = !{i32 7, !"uwtable", i32 2}
!3 = !{i32 7, !"frame-pointer", i32 2}
